; Function Attrs: nounwind uwtable
define hidden void @_glfwSetWindowDecoratedWayland(ptr noundef %0, i32 noundef %1) local_unnamed_addr #0 {
  %3 = getelementptr inbounds nuw i8, ptr %0, i64 984
  %4 = load ptr, ptr %3, align 8, !tbaa !160
  %.not = icmp eq ptr %4, null
  br i1 %.not, label %8, label %5

5:                                                ; preds = %2
  %6 = load ptr, ptr getelementptr inbounds nuw (i8, ptr @_glfw, i64 137792), align 8, !tbaa !229
  %7 = icmp ne i32 %1, 0
  tail call void %6(ptr noundef nonnull %4, i1 noundef zeroext %7) #20
  br label %22

8:                                                ; preds = %2
  %9 = getelementptr inbounds nuw i8, ptr %0, i64 968
  %10 = load ptr, ptr %9, align 8, !tbaa !237
  %.not11 = icmp eq ptr %10, null
  br i1 %.not11, label %16, label %11

11:                                               ; preds = %8
  %.not14 = icmp eq i32 %1, 0
  %. = select i1 %.not14, i32 1, i32 2
  %12 = load ptr, ptr getelementptr inbounds nuw (i8, ptr @_glfw, i64 137528), align 8, !tbaa !136
  %13 = load ptr, ptr getelementptr inbounds nuw (i8, ptr @_glfw, i64 137520), align 8, !tbaa !93
  %14 = tail call i32 %13(ptr noundef nonnull %10) #20
  %15 = tail call ptr (ptr, i32, ptr, i32, i32, ...) %12(ptr noundef nonnull %10, i32 noundef 1, ptr noundef null, i32 noundef %14, i32 noundef 0, i32 noundef range(i32 1, 3) %.) #20
  br label %22

16:                                               ; preds = %8
  %17 = getelementptr inbounds nuw i8, ptr %0, i64 960
  %18 = load ptr, ptr %17, align 8, !tbaa !235
  %.not12 = icmp eq ptr %18, null
  br i1 %.not12, label %22, label %19

19:                                               ; preds = %16
  %.not13 = icmp eq i32 %1, 0
  br i1 %.not13, label %21, label %20

20:                                               ; preds = %19
  tail call fastcc void @createFallbackDecorations(ptr noundef nonnull %0)
  br label %22

21:                                               ; preds = %19
  tail call fastcc void @destroyFallbackDecorations(ptr noundef nonnull %0)
  br label %22

22:                                               ; preds = %11, %20, %21, %16, %5
  ret void
}